--- !tapi-tbd
tbd-version:     4
targets:         [ x86_64-macos ]
flags:           [ not_app_extension_safe ]
install-name:    '/usr/local/lib/libGeometryLib.dylib'
exports:
  - targets:         [ x86_64-macos ]
    symbols:         [ __ZN8geometry17IntersectionQuery13buildEventSetEv, __ZN8geometry17IntersectionQuery18postInsertSegCheckERNSt3__13setINS1_10shared_ptrINS_7SegmentEEENS_14compareSegmentENS1_9allocatorIS5_EEEENS1_21__tree_const_iteratorIS5_PNS1_11__tree_nodeIS5_PvEElEERNS1_6vectorINS1_4pairIS5_S5_EENS7_ISJ_EEEERNS2_INS3_INS_15InterQueueEventEEENS_12compareEventENS7_ISO_EEEERNSH_INS3_INS_11PointStructEEENS7_ISU_EEEE, 
                       __ZN8geometry17IntersectionQuery20checkSegIntersectionENSt3__110shared_ptrINS_7SegmentEEES4_RNS1_6vectorINS1_4pairIS4_S4_EENS1_9allocatorIS7_EEEERNS1_3setINS2_INS_15InterQueueEventEEENS_12compareEventENS8_ISE_EEEERNS5_INS2_INS_11PointStructEEENS8_ISK_EEEERNSC_IS4_NS_14compareSegmentENS8_IS4_EEEE, 
                       __ZN8geometry17IntersectionQuery25findAllIntersectionsSmartEv, 
                       __ZN8geometry17IntersectionQuery30findAllIntersectionsBruteForceEv, 
                       __ZN8geometry17IntersectionQuery8addEventERNSt3__13setINS1_10shared_ptrINS_15InterQueueEventEEENS_12compareEventENS1_9allocatorIS5_EEEENS3_INS_23IntersectionPointStructEEE, 
                       __ZN8geometry17IntersectionQuery9removeSegERNSt3__13setINS1_10shared_ptrINS_7SegmentEEENS_14compareSegmentENS1_9allocatorIS5_EEEENS1_21__tree_const_iteratorIS5_PNS1_11__tree_nodeIS5_PvEElEERNS1_6vectorINS1_4pairIS5_S5_EENS7_ISJ_EEEERNS2_INS3_INS_15InterQueueEventEEENS_12compareEventENS7_ISO_EEEERNSH_INS3_INS_11PointStructEEENS7_ISU_EEEE, 
                       __ZN8geometry17IntersectionQueryC1ERKNSt3__16vectorINS1_10shared_ptrINS_7SegmentEEENS1_9allocatorIS5_EEEE, 
                       __ZN8geometry17IntersectionQueryC2ERKNSt3__16vectorINS1_10shared_ptrINS_7SegmentEEENS1_9allocatorIS5_EEEE, 
                       __ZN8geometry23IntersectionPointStructC1ENSt3__110shared_ptrINS_11PointStructEEENS1_4pairINS2_INS_7SegmentEEES7_EE, 
                       __ZN8geometry23IntersectionPointStructC2ENSt3__110shared_ptrINS_11PointStructEEENS1_4pairINS2_INS_7SegmentEEES7_EE, 
                       __ZN8geometry5Point10distanceSqEffff, __ZN8geometry5Point11circleList_E, 
                       __ZN8geometry5Point12makeNewPointEff, __ZN8geometry5Point15makeNewPointPtrEff, 
                       __ZN8geometry5Point16pointDiskRadius_E, __ZN8geometry5Point17initDisplayLists_Ev, 
                       __ZN8geometry5Point18setPointDiskRadiusEf, __ZN8geometry5Point21renderAllSinglePointsEv, 
                       __ZN8geometry5Point24displayListsInitialized_E, __ZN8geometry5Point6count_E, 
                       __ZN8geometry5Point6renderERKNS_11PointStructENS_9PointTypeE, 
                       __ZN8geometry5Point9diskList_E, __ZN8geometry5Point9pointSet_E, 
                       __ZN8geometry5PointC1ENS_10PointTokenEff, __ZN8geometry5PointC2ENS_10PointTokenEff, 
                       __ZN8geometry7Segment10makeNewSegENSt3__110shared_ptrINS_5PointEEES4_, 
                       __ZN8geometry7Segment13makeNewSegPtrENSt3__110shared_ptrINS_5PointEEES4_, 
                       __ZN8geometry7Segment13renderCreatedERKNS_11PointStructES3_, 
                       __ZN8geometry7Segment14makeNewTempSegENSt3__110shared_ptrINS_5PointEEES4_, 
                       __ZN8geometry7Segment16findIntersectionERKS0_, __ZN8geometry7Segment17renderAllSegmentsEv, 
                       __ZN8geometry7Segment6count_E, __ZN8geometry7Segment7render_ERKNS_5PointES3_NS_11SegmentTypeE, 
                       __ZN8geometry7Segment7segSet_E, __ZN8geometry7Segment8segVect_E, 
                       __ZN8geometry7SegmentC1ENS_12SegmentTokenENSt3__110shared_ptrINS_5PointEEES5_b, 
                       __ZN8geometry7SegmentC1ENSt3__110shared_ptrINS_5PointEEES4_, 
                       __ZN8geometry7SegmentC2ENS_12SegmentTokenENSt3__110shared_ptrINS_5PointEEES5_b, 
                       __ZN8geometry7SegmentC2ENSt3__110shared_ptrINS_5PointEEES4_, 
                       __ZN8geometry7SegmentD1Ev, __ZN8geometry7SegmentD2Ev, __ZN8geometry8Geometry16DISTANCE_ABS_TOLE, 
                       __ZN8geometry8Geometry16DISTANCE_REL_TOLE, __ZN8geometry8Geometry19DISTANCE_ABS_SQ_TOLE, 
                       __ZN8geometry8Geometry19DISTANCE_REL_SQ_TOLE, __ZNK8geometry17IntersectionQuery15getTListContentERKNSt3__13setINS1_10shared_ptrINS_7SegmentEEENS_14compareSegmentENS1_9allocatorIS5_EEEERKNS1_6vectorINS1_4pairIS5_S5_EENS7_ISE_EEEESI_, 
                       __ZNK8geometry17IntersectionQuery20getEventQueueContentERKNSt3__13setINS1_10shared_ptrINS_15InterQueueEventEEENS_12compareEventENS1_9allocatorIS5_EEEEb, 
                       __ZNK8geometry5Point6renderENS_9PointTypeE, __ZNK8geometry7Segment10intersectsENSt3__110shared_ptrINS_5PointEEES4_, 
                       __ZNK8geometry7Segment10intersectsERKNS_11PointStructES3_, 
                       __ZNK8geometry7Segment10intersectsERKS0_, __ZNK8geometry7Segment12isOnLeftSideENSt3__110shared_ptrINS_5PointEEE, 
                       __ZNK8geometry7Segment12isOnLeftSideERKNS_11PointStructE, 
                       __ZNK8geometry7Segment12isOnLeftSideERKNS_5PointE, __ZNK8geometry7Segment18areOnOppositeSidesENSt3__110shared_ptrINS_5PointEEES4_, 
                       __ZNK8geometry7Segment18areOnOppositeSidesERKNS_11PointStructES3_, 
                       __ZNK8geometry7Segment6renderENS_11SegmentTypeE ]
    weak-symbols:    [ __ZN8geometry5scanYE, __ZNSt3__111__tree_nextIPNS_16__tree_node_baseIPvEEEET_S5_, 
                       __ZNSt3__113__tree_removeIPNS_16__tree_node_baseIPvEEEEvT_S5_, 
                       __ZNSt3__118__tree_left_rotateIPNS_16__tree_node_baseIPvEEEEvT_, 
                       __ZNSt3__119__tree_right_rotateIPNS_16__tree_node_baseIPvEEEEvT_, 
                       __ZNSt3__124__put_character_sequenceIcNS_11char_traitsIcEEEERNS_13basic_ostreamIT_T0_EES7_PKS4_m, 
                       __ZNSt3__127__tree_balance_after_insertIPNS_16__tree_node_baseIPvEEEEvT_S5_, 
                       __ZNSt3__16__treeINS_10shared_ptrIN8geometry15InterQueueEventEEENS2_12compareEventENS_9allocatorIS4_EEE12__find_equalIS4_EERPNS_16__tree_node_baseIPvEERPNS_15__tree_end_nodeISD_EERKT_, 
                       __ZNSt3__16__treeINS_10shared_ptrIN8geometry15InterQueueEventEEENS2_12compareEventENS_9allocatorIS4_EEE16__construct_nodeIJRKS4_EEENS_10unique_ptrINS_11__tree_nodeIS4_PvEENS_22__tree_node_destructorINS6_ISF_EEEEEEDpOT_, 
                       __ZNSt3__16__treeINS_10shared_ptrIN8geometry15InterQueueEventEEENS2_12compareEventENS_9allocatorIS4_EEE16__insert_node_atEPNS_15__tree_end_nodeIPNS_16__tree_node_baseIPvEEEERSD_SD_, 
                       __ZNSt3__16__treeINS_10shared_ptrIN8geometry15InterQueueEventEEENS2_12compareEventENS_9allocatorIS4_EEE25__emplace_unique_key_argsIS4_JRKS4_EEENS_4pairINS_15__tree_iteratorIS4_PNS_11__tree_nodeIS4_PvEElEEbEERKT_DpOT0_, 
                       __ZNSt3__16__treeINS_10shared_ptrIN8geometry15InterQueueEventEEENS2_12compareEventENS_9allocatorIS4_EEE7destroyEPNS_11__tree_nodeIS4_PvEE, 
                       __ZNSt3__16__treeINS_10shared_ptrIN8geometry5PointEEENS_4lessIS4_EENS_9allocatorIS4_EEE12__find_equalIS4_EERPNS_16__tree_node_baseIPvEERPNS_15__tree_end_nodeISE_EERKT_, 
                       __ZNSt3__16__treeINS_10shared_ptrIN8geometry5PointEEENS_4lessIS4_EENS_9allocatorIS4_EEE16__construct_nodeIJRKS4_EEENS_10unique_ptrINS_11__tree_nodeIS4_PvEENS_22__tree_node_destructorINS7_ISG_EEEEEEDpOT_, 
                       __ZNSt3__16__treeINS_10shared_ptrIN8geometry5PointEEENS_4lessIS4_EENS_9allocatorIS4_EEE16__insert_node_atEPNS_15__tree_end_nodeIPNS_16__tree_node_baseIPvEEEERSE_SE_, 
                       __ZNSt3__16__treeINS_10shared_ptrIN8geometry5PointEEENS_4lessIS4_EENS_9allocatorIS4_EEE25__emplace_unique_key_argsIS4_JRKS4_EEENS_4pairINS_15__tree_iteratorIS4_PNS_11__tree_nodeIS4_PvEElEEbEERKT_DpOT0_, 
                       __ZNSt3__16__treeINS_10shared_ptrIN8geometry5PointEEENS_4lessIS4_EENS_9allocatorIS4_EEE7destroyEPNS_11__tree_nodeIS4_PvEE, 
                       __ZNSt3__16__treeINS_10shared_ptrIN8geometry7SegmentEEENS2_14compareSegmentENS_9allocatorIS4_EEE12__find_equalIS4_EERPNS_16__tree_node_baseIPvEERPNS_15__tree_end_nodeISD_EERKT_, 
                       __ZNSt3__16__treeINS_10shared_ptrIN8geometry7SegmentEEENS2_14compareSegmentENS_9allocatorIS4_EEE13__lower_boundIS4_EENS_15__tree_iteratorIS4_PNS_11__tree_nodeIS4_PvEElEERKT_SE_PNS_15__tree_end_nodeIPNS_16__tree_node_baseISC_EEEE, 
                       __ZNSt3__16__treeINS_10shared_ptrIN8geometry7SegmentEEENS2_14compareSegmentENS_9allocatorIS4_EEE14__erase_uniqueIS4_EEmRKT_, 
                       __ZNSt3__16__treeINS_10shared_ptrIN8geometry7SegmentEEENS2_14compareSegmentENS_9allocatorIS4_EEE16__construct_nodeIJRKS4_EEENS_10unique_ptrINS_11__tree_nodeIS4_PvEENS_22__tree_node_destructorINS6_ISF_EEEEEEDpOT_, 
                       __ZNSt3__16__treeINS_10shared_ptrIN8geometry7SegmentEEENS2_14compareSegmentENS_9allocatorIS4_EEE16__insert_node_atEPNS_15__tree_end_nodeIPNS_16__tree_node_baseIPvEEEERSD_SD_, 
                       __ZNSt3__16__treeINS_10shared_ptrIN8geometry7SegmentEEENS2_14compareSegmentENS_9allocatorIS4_EEE25__emplace_unique_key_argsIS4_JRKS4_EEENS_4pairINS_15__tree_iteratorIS4_PNS_11__tree_nodeIS4_PvEElEEbEERKT_DpOT0_, 
                       __ZNSt3__16__treeINS_10shared_ptrIN8geometry7SegmentEEENS2_14compareSegmentENS_9allocatorIS4_EEE4findIS4_EENS_15__tree_iteratorIS4_PNS_11__tree_nodeIS4_PvEElEERKT_, 
                       __ZNSt3__16__treeINS_10shared_ptrIN8geometry7SegmentEEENS2_14compareSegmentENS_9allocatorIS4_EEE5eraseENS_21__tree_const_iteratorIS4_PNS_11__tree_nodeIS4_PvEElEE, 
                       __ZNSt3__16__treeINS_10shared_ptrIN8geometry7SegmentEEENS2_14compareSegmentENS_9allocatorIS4_EEE7destroyEPNS_11__tree_nodeIS4_PvEE, 
                       __ZNSt3__16__treeINS_10shared_ptrIN8geometry7SegmentEEENS_4lessIS4_EENS_9allocatorIS4_EEE12__find_equalIS4_EERPNS_16__tree_node_baseIPvEENS_21__tree_const_iteratorIS4_PNS_11__tree_nodeIS4_SC_EElEERPNS_15__tree_end_nodeISE_EESF_RKT_, 
                       __ZNSt3__16__treeINS_10shared_ptrIN8geometry7SegmentEEENS_4lessIS4_EENS_9allocatorIS4_EEE12__find_equalIS4_EERPNS_16__tree_node_baseIPvEERPNS_15__tree_end_nodeISE_EERKT_, 
                       __ZNSt3__16__treeINS_10shared_ptrIN8geometry7SegmentEEENS_4lessIS4_EENS_9allocatorIS4_EEE13__lower_boundIS4_EENS_15__tree_iteratorIS4_PNS_11__tree_nodeIS4_PvEElEERKT_SF_PNS_15__tree_end_nodeIPNS_16__tree_node_baseISD_EEEE, 
                       __ZNSt3__16__treeINS_10shared_ptrIN8geometry7SegmentEEENS_4lessIS4_EENS_9allocatorIS4_EEE14__erase_uniqueIS4_EEmRKT_, 
                       __ZNSt3__16__treeINS_10shared_ptrIN8geometry7SegmentEEENS_4lessIS4_EENS_9allocatorIS4_EEE16__construct_nodeIJRKS4_EEENS_10unique_ptrINS_11__tree_nodeIS4_PvEENS_22__tree_node_destructorINS7_ISG_EEEEEEDpOT_, 
                       __ZNSt3__16__treeINS_10shared_ptrIN8geometry7SegmentEEENS_4lessIS4_EENS_9allocatorIS4_EEE16__insert_node_atEPNS_15__tree_end_nodeIPNS_16__tree_node_baseIPvEEEERSE_SE_, 
                       __ZNSt3__16__treeINS_10shared_ptrIN8geometry7SegmentEEENS_4lessIS4_EENS_9allocatorIS4_EEE25__emplace_unique_key_argsIS4_JRKS4_EEENS_4pairINS_15__tree_iteratorIS4_PNS_11__tree_nodeIS4_PvEElEEbEERKT_DpOT0_, 
                       __ZNSt3__16__treeINS_10shared_ptrIN8geometry7SegmentEEENS_4lessIS4_EENS_9allocatorIS4_EEE30__emplace_hint_unique_key_argsIS4_JRKS4_EEENS_4pairINS_15__tree_iteratorIS4_PNS_11__tree_nodeIS4_PvEElEEbEENS_21__tree_const_iteratorIS4_SI_lEERKT_DpOT0_, 
                       __ZNSt3__16__treeINS_10shared_ptrIN8geometry7SegmentEEENS_4lessIS4_EENS_9allocatorIS4_EEE4findIS4_EENS_15__tree_iteratorIS4_PNS_11__tree_nodeIS4_PvEElEERKT_, 
                       __ZNSt3__16__treeINS_10shared_ptrIN8geometry7SegmentEEENS_4lessIS4_EENS_9allocatorIS4_EEE5eraseENS_21__tree_const_iteratorIS4_PNS_11__tree_nodeIS4_PvEElEE, 
                       __ZNSt3__16__treeINS_10shared_ptrIN8geometry7SegmentEEENS_4lessIS4_EENS_9allocatorIS4_EEE7destroyEPNS_11__tree_nodeIS4_PvEE, 
                       __ZNSt3__1lsINS_11char_traitsIcEEEERNS_13basic_ostreamIcT_EES6_PKc, 
                       __ZNSt3__1lsIcNS_11char_traitsIcEENS_9allocatorIcEEEERNS_13basic_ostreamIT_T0_EES9_RKNS_12basic_stringIS6_S7_T1_EE, 
                       __ZTINSt3__120__shared_ptr_emplaceIN8geometry11PointStructENS_9allocatorIS2_EEEE, 
                       __ZTINSt3__120__shared_ptr_emplaceIN8geometry15InterQueueEventENS_9allocatorIS2_EEEE, 
                       __ZTINSt3__120__shared_ptr_emplaceIN8geometry23IntersectionPointStructENS_9allocatorIS2_EEEE, 
                       __ZTINSt3__120__shared_ptr_emplaceIN8geometry5PointENS_9allocatorIS2_EEEE, 
                       __ZTINSt3__120__shared_ptr_emplaceIN8geometry7SegmentENS_9allocatorIS2_EEEE, 
                       __ZTSNSt3__120__shared_ptr_emplaceIN8geometry11PointStructENS_9allocatorIS2_EEEE, 
                       __ZTSNSt3__120__shared_ptr_emplaceIN8geometry15InterQueueEventENS_9allocatorIS2_EEEE, 
                       __ZTSNSt3__120__shared_ptr_emplaceIN8geometry23IntersectionPointStructENS_9allocatorIS2_EEEE, 
                       __ZTSNSt3__120__shared_ptr_emplaceIN8geometry5PointENS_9allocatorIS2_EEEE, 
                       __ZTSNSt3__120__shared_ptr_emplaceIN8geometry7SegmentENS_9allocatorIS2_EEEE ]
...
